; Function Attrs: mustprogress nofree norecurse nosync nounwind willreturn memory(read, inaccessiblemem: none) uwtable
define ptr @Pa_GetStreamInfo(ptr noundef readonly %0) local_unnamed_addr #9 {
  %2 = load i32, ptr @initializationCount_, align 4
  %.not.i = icmp eq i32 %2, 0
  %3 = icmp eq ptr %0, null
  %or.cond = or i1 %3, %.not.i
  br i1 %or.cond, label %PaUtil_ValidateStreamPointer.exit.thread, label %4

4:                                                ; preds = %1
  %5 = load i64, ptr %0, align 8
  %.not3.i = icmp eq i64 %5, 405222981
  %6 = getelementptr inbounds nuw i8, ptr %0, i64 48
  %spec.select = select i1 %.not3.i, ptr %6, ptr null
  br label %PaUtil_ValidateStreamPointer.exit.thread

PaUtil_ValidateStreamPointer.exit.thread:         ; preds = %4, %1
  %7 = phi ptr [ null, %1 ], [ %spec.select, %4 ]
  ret ptr %7
}